; Function Attrs: mustprogress uwtable
define noundef zeroext i1 @_ZNK32pxrInternal_v0_24__pxrReserved__21UsdGeomPointInstancer9VisAllIdsERKNS_11UsdTimeCodeE(ptr noundef nonnull align 8 dereferenceable(24) %0, ptr nocapture noundef nonnull readonly align 8 dereferenceable(8) %1) local_unnamed_addr #0 align 2 personality ptr @__gxx_personality_v0 {
  %3 = alloca %"class.pxrInternal_v0_24__pxrReserved__::VtArray.107", align 8
  %4 = alloca %"class.pxrInternal_v0_24__pxrReserved__::UsdAttribute", align 8
  %5 = alloca %"class.pxrInternal_v0_24__pxrReserved__::UsdAttribute", align 8
  %6 = alloca %"class.pxrInternal_v0_24__pxrReserved__::VtValue", align 8
  call void @_ZN32pxrInternal_v0_24__pxrReserved__7VtArrayIlEC1Em(ptr noundef nonnull align 8 dereferenceable(40) %3, i64 noundef 0)
  invoke void @_ZNK32pxrInternal_v0_24__pxrReserved__21UsdGeomPointInstancer19GetInvisibleIdsAttrEv(ptr dead_on_unwind nonnull writable sret(%"class.pxrInternal_v0_24__pxrReserved__::UsdAttribute") align 8 %4, ptr noundef nonnull align 8 dereferenceable(24) %0)
          to label %7 unwind label %92

7:                                                ; preds = %2
  %8 = invoke noundef zeroext i1 @_ZNK32pxrInternal_v0_24__pxrReserved__12UsdAttribute16HasAuthoredValueEv(ptr noundef nonnull align 8 dereferenceable(32) %4)
          to label %9 unwind label %94

9:                                                ; preds = %7
  %10 = getelementptr inbounds nuw i8, ptr %4, i64 24
  %11 = load ptr, ptr %10, align 8
  %12 = ptrtoint ptr %11 to i64
  %13 = and i64 %12, 7
  %.not.i.i.i.i.i = icmp eq i64 %13, 0
  br i1 %.not.i.i.i.i.i, label %_ZN32pxrInternal_v0_24__pxrReserved__7TfTokenD2Ev.exit.i.i.i, label %14

14:                                               ; preds = %9
  %15 = and i64 %12, -8
  %16 = inttoptr i64 %15 to ptr
  %17 = atomicrmw sub ptr %16, i32 2 release, align 4
  br label %_ZN32pxrInternal_v0_24__pxrReserved__7TfTokenD2Ev.exit.i.i.i

_ZN32pxrInternal_v0_24__pxrReserved__7TfTokenD2Ev.exit.i.i.i: ; preds = %14, %9
  %18 = getelementptr inbounds nuw i8, ptr %4, i64 16
  %19 = load i32, ptr %18, align 8
  %.not.i.i1.i.i.i = icmp eq i32 %19, 0
  br i1 %.not.i.i1.i.i.i, label %_ZN32pxrInternal_v0_24__pxrReserved__7SdfPathD2Ev.exit.i.i.i, label %20

20:                                               ; preds = %_ZN32pxrInternal_v0_24__pxrReserved__7TfTokenD2Ev.exit.i.i.i
  %21 = and i32 %19, 255
  %22 = lshr i32 %19, 8
  %23 = zext nneg i32 %21 to i64
  %24 = getelementptr inbounds [257 x ptr], ptr @_ZN32pxrInternal_v0_24__pxrReserved__8Sdf_PoolINS_15Sdf_PathPrimTagELj24ELj8ELj16384EE13_regionStartsE, i64 0, i64 %23
  %25 = load ptr, ptr %24, align 8
  %26 = mul nuw nsw i32 %22, 24
  %27 = zext nneg i32 %26 to i64
  %28 = getelementptr inbounds i8, ptr %25, i64 %27
  %29 = getelementptr inbounds nuw i8, ptr %28, i64 8
  %30 = atomicrmw sub ptr %29, i32 1 seq_cst, align 4
  %31 = and i32 %30, 2147483647
  %32 = icmp eq i32 %31, 1
  br i1 %32, label %33, label %_ZN32pxrInternal_v0_24__pxrReserved__7SdfPathD2Ev.exit.i.i.i

33:                                               ; preds = %20
  invoke void @_ZNK32pxrInternal_v0_24__pxrReserved__12Sdf_PathNode8_DestroyEv(ptr noundef nonnull align 8 dereferenceable(16) %28)
          to label %_ZN32pxrInternal_v0_24__pxrReserved__7SdfPathD2Ev.exit.i.i.i unwind label %34

34:                                               ; preds = %33
  %35 = landingpad { ptr, i32 }
          catch ptr null
  %36 = extractvalue { ptr, i32 } %35, 0
  call void @__clang_call_terminate(ptr %36) #25
  unreachable

_ZN32pxrInternal_v0_24__pxrReserved__7SdfPathD2Ev.exit.i.i.i: ; preds = %33, %20, %_ZN32pxrInternal_v0_24__pxrReserved__7TfTokenD2Ev.exit.i.i.i
  %37 = getelementptr inbounds nuw i8, ptr %4, i64 8
  %38 = load ptr, ptr %37, align 8
  %.not.i.i.i.i.i.i = icmp eq ptr %38, null
  br i1 %.not.i.i.i.i.i.i, label %_ZN32pxrInternal_v0_24__pxrReserved__12UsdAttributeD2Ev.exit, label %39

39:                                               ; preds = %_ZN32pxrInternal_v0_24__pxrReserved__7SdfPathD2Ev.exit.i.i.i
  %40 = getelementptr inbounds nuw i8, ptr %38, i64 48
  %41 = atomicrmw sub ptr %40, i64 1 release, align 8
  %.not1.i.i.i.i.i.i = icmp eq i64 %41, 1
  br i1 %.not1.i.i.i.i.i.i, label %42, label %_ZN32pxrInternal_v0_24__pxrReserved__12UsdAttributeD2Ev.exit

42:                                               ; preds = %39
  call void @_ZN32pxrInternal_v0_24__pxrReserved__12Usd_PrimDataD1Ev(ptr noundef nonnull align 8 dereferenceable(64) %38) #23
  call void @_ZdlPvm(ptr noundef nonnull %38, i64 noundef 64) #24
  br label %_ZN32pxrInternal_v0_24__pxrReserved__12UsdAttributeD2Ev.exit

_ZN32pxrInternal_v0_24__pxrReserved__12UsdAttributeD2Ev.exit: ; preds = %_ZN32pxrInternal_v0_24__pxrReserved__7SdfPathD2Ev.exit.i.i.i, %39, %42
  br i1 %8, label %43, label %101

43:                                               ; preds = %_ZN32pxrInternal_v0_24__pxrReserved__12UsdAttributeD2Ev.exit
  %44 = getelementptr inbounds nuw i8, ptr %6, i64 8
  store ptr null, ptr %44, align 8
  invoke void @_ZNK32pxrInternal_v0_24__pxrReserved__21UsdGeomPointInstancer22CreateInvisibleIdsAttrERKNS_7VtValueEb(ptr dead_on_unwind nonnull writable sret(%"class.pxrInternal_v0_24__pxrReserved__::UsdAttribute") align 8 %5, ptr noundef nonnull align 8 dereferenceable(24) %0, ptr noundef nonnull align 8 dereferenceable(16) %6, i1 noundef zeroext false)
          to label %45 unwind label %96

45:                                               ; preds = %43
  %.sroa.0.0.copyload = load double, ptr %1, align 8
  %46 = invoke noundef zeroext i1 @_ZNK32pxrInternal_v0_24__pxrReserved__12UsdAttribute4_SetINS_7VtArrayIlEEEEbRKT_NS_11UsdTimeCodeE(ptr noundef nonnull align 8 dereferenceable(32) %5, ptr noundef nonnull align 8 dereferenceable(40) %3, double %.sroa.0.0.copyload)
          to label %_ZNK32pxrInternal_v0_24__pxrReserved__12UsdAttribute3SetINS_7VtArrayIlEEEEbRKT_NS_11UsdTimeCodeE.exit unwind label %98

_ZNK32pxrInternal_v0_24__pxrReserved__12UsdAttribute3SetINS_7VtArrayIlEEEEbRKT_NS_11UsdTimeCodeE.exit: ; preds = %45
  %47 = getelementptr inbounds nuw i8, ptr %5, i64 24
  %48 = load ptr, ptr %47, align 8
  %49 = ptrtoint ptr %48 to i64
  %50 = and i64 %49, 7
  %.not.i.i.i.i.i9 = icmp eq i64 %50, 0
  br i1 %.not.i.i.i.i.i9, label %_ZN32pxrInternal_v0_24__pxrReserved__7TfTokenD2Ev.exit.i.i.i10, label %51

51:                                               ; preds = %_ZNK32pxrInternal_v0_24__pxrReserved__12UsdAttribute3SetINS_7VtArrayIlEEEEbRKT_NS_11UsdTimeCodeE.exit
  %52 = and i64 %49, -8
  %53 = inttoptr i64 %52 to ptr
  %54 = atomicrmw sub ptr %53, i32 2 release, align 4
  br label %_ZN32pxrInternal_v0_24__pxrReserved__7TfTokenD2Ev.exit.i.i.i10

_ZN32pxrInternal_v0_24__pxrReserved__7TfTokenD2Ev.exit.i.i.i10: ; preds = %51, %_ZNK32pxrInternal_v0_24__pxrReserved__12UsdAttribute3SetINS_7VtArrayIlEEEEbRKT_NS_11UsdTimeCodeE.exit
  %55 = getelementptr inbounds nuw i8, ptr %5, i64 16
  %56 = load i32, ptr %55, align 8
  %.not.i.i1.i.i.i11 = icmp eq i32 %56, 0
  br i1 %.not.i.i1.i.i.i11, label %_ZN32pxrInternal_v0_24__pxrReserved__7SdfPathD2Ev.exit.i.i.i12, label %57

57:                                               ; preds = %_ZN32pxrInternal_v0_24__pxrReserved__7TfTokenD2Ev.exit.i.i.i10
  %58 = and i32 %56, 255
  %59 = lshr i32 %56, 8
  %60 = zext nneg i32 %58 to i64
  %61 = getelementptr inbounds [257 x ptr], ptr @_ZN32pxrInternal_v0_24__pxrReserved__8Sdf_PoolINS_15Sdf_PathPrimTagELj24ELj8ELj16384EE13_regionStartsE, i64 0, i64 %60
  %62 = load ptr, ptr %61, align 8
  %63 = mul nuw nsw i32 %59, 24
  %64 = zext nneg i32 %63 to i64
  %65 = getelementptr inbounds i8, ptr %62, i64 %64
  %66 = getelementptr inbounds nuw i8, ptr %65, i64 8
  %67 = atomicrmw sub ptr %66, i32 1 seq_cst, align 4
  %68 = and i32 %67, 2147483647
  %69 = icmp eq i32 %68, 1
  br i1 %69, label %70, label %_ZN32pxrInternal_v0_24__pxrReserved__7SdfPathD2Ev.exit.i.i.i12

70:                                               ; preds = %57
  invoke void @_ZNK32pxrInternal_v0_24__pxrReserved__12Sdf_PathNode8_DestroyEv(ptr noundef nonnull align 8 dereferenceable(16) %65)
          to label %_ZN32pxrInternal_v0_24__pxrReserved__7SdfPathD2Ev.exit.i.i.i12 unwind label %71

71:                                               ; preds = %70
  %72 = landingpad { ptr, i32 }
          catch ptr null
  %73 = extractvalue { ptr, i32 } %72, 0
  call void @__clang_call_terminate(ptr %73) #25
  unreachable

_ZN32pxrInternal_v0_24__pxrReserved__7SdfPathD2Ev.exit.i.i.i12: ; preds = %70, %57, %_ZN32pxrInternal_v0_24__pxrReserved__7TfTokenD2Ev.exit.i.i.i10
  %74 = getelementptr inbounds nuw i8, ptr %5, i64 8
  %75 = load ptr, ptr %74, align 8
  %.not.i.i.i.i.i.i13 = icmp eq ptr %75, null
  br i1 %.not.i.i.i.i.i.i13, label %_ZN32pxrInternal_v0_24__pxrReserved__12UsdAttributeD2Ev.exit15, label %76

76:                                               ; preds = %_ZN32pxrInternal_v0_24__pxrReserved__7SdfPathD2Ev.exit.i.i.i12
  %77 = getelementptr inbounds nuw i8, ptr %75, i64 48
  %78 = atomicrmw sub ptr %77, i64 1 release, align 8
  %.not1.i.i.i.i.i.i14 = icmp eq i64 %78, 1
  br i1 %.not1.i.i.i.i.i.i14, label %79, label %_ZN32pxrInternal_v0_24__pxrReserved__12UsdAttributeD2Ev.exit15

79:                                               ; preds = %76
  call void @_ZN32pxrInternal_v0_24__pxrReserved__12Usd_PrimDataD1Ev(ptr noundef nonnull align 8 dereferenceable(64) %75) #23
  call void @_ZdlPvm(ptr noundef nonnull %75, i64 noundef 64) #24
  br label %_ZN32pxrInternal_v0_24__pxrReserved__12UsdAttributeD2Ev.exit15

_ZN32pxrInternal_v0_24__pxrReserved__12UsdAttributeD2Ev.exit15: ; preds = %_ZN32pxrInternal_v0_24__pxrReserved__7SdfPathD2Ev.exit.i.i.i12, %76, %79
  %80 = load ptr, ptr %44, align 8
  %81 = ptrtoint ptr %80 to i64
  %.not.i.i = icmp eq ptr %80, null
  %82 = and i64 %81, 3
  %83 = icmp eq i64 %82, 3
  %or.cond.i.i = or i1 %.not.i.i, %83
  br i1 %or.cond.i.i, label %_ZN32pxrInternal_v0_24__pxrReserved__7VtValueD2Ev.exit, label %84

84:                                               ; preds = %_ZN32pxrInternal_v0_24__pxrReserved__12UsdAttributeD2Ev.exit15
  %85 = and i64 %81, -8
  %86 = inttoptr i64 %85 to ptr
  %87 = getelementptr inbounds nuw i8, ptr %86, i64 32
  %88 = load ptr, ptr %87, align 8
  invoke void %88(ptr noundef nonnull align 8 dereferenceable(8) %6)
          to label %_ZN32pxrInternal_v0_24__pxrReserved__7VtValueD2Ev.exit unwind label %89

89:                                               ; preds = %84
  %90 = landingpad { ptr, i32 }
          catch ptr null
  %91 = extractvalue { ptr, i32 } %90, 0
  call void @__clang_call_terminate(ptr %91) #25
  unreachable

_ZN32pxrInternal_v0_24__pxrReserved__7VtValueD2Ev.exit: ; preds = %_ZN32pxrInternal_v0_24__pxrReserved__12UsdAttributeD2Ev.exit15, %84
  store ptr null, ptr %44, align 8
  br label %101

92:                                               ; preds = %2
  %93 = landingpad { ptr, i32 }
          cleanup
  br label %102

94:                                               ; preds = %7
  %95 = landingpad { ptr, i32 }
          cleanup
  call void @_ZN32pxrInternal_v0_24__pxrReserved__12UsdAttributeD2Ev(ptr noundef nonnull align 8 dereferenceable(32) %4) #23
  br label %102

96:                                               ; preds = %43
  %97 = landingpad { ptr, i32 }
          cleanup
  br label %100

98:                                               ; preds = %45
  %99 = landingpad { ptr, i32 }
          cleanup
  call void @_ZN32pxrInternal_v0_24__pxrReserved__12UsdAttributeD2Ev(ptr noundef nonnull align 8 dereferenceable(32) %5) #23
  br label %100

100:                                              ; preds = %98, %96
  %.pn = phi { ptr, i32 } [ %99, %98 ], [ %97, %96 ]
  call void @_ZN32pxrInternal_v0_24__pxrReserved__7VtValueD2Ev(ptr noundef nonnull align 8 dereferenceable(16) %6) #23
  br label %102

101:                                              ; preds = %_ZN32pxrInternal_v0_24__pxrReserved__12UsdAttributeD2Ev.exit, %_ZN32pxrInternal_v0_24__pxrReserved__7VtValueD2Ev.exit
  %.0 = phi i1 [ %46, %_ZN32pxrInternal_v0_24__pxrReserved__7VtValueD2Ev.exit ], [ true, %_ZN32pxrInternal_v0_24__pxrReserved__12UsdAttributeD2Ev.exit ]
  call void @_ZN32pxrInternal_v0_24__pxrReserved__7VtArrayIlED1Ev(ptr noundef nonnull align 8 dereferenceable(40) %3) #23
  ret i1 %.0

102:                                              ; preds = %100, %94, %92
  %.pn.pn = phi { ptr, i32 } [ %.pn, %100 ], [ %95, %94 ], [ %93, %92 ]
  call void @_ZN32pxrInternal_v0_24__pxrReserved__7VtArrayIlED1Ev(ptr noundef nonnull align 8 dereferenceable(40) %3) #23
  resume { ptr, i32 } %.pn.pn
}